; ModuleID = 'source-C-CXX/48/501.cpp'
source_filename = "source-C-CXX/48/501.cpp"
target datalayout = "e-m:e-p270:32:32-p271:32:32-p272:64:64-i64:64-f80:128-n8:16:32:64-S128"
target triple = "x86_64-pc-linux-gnu"

%"class.std::ios_base::Init" = type { i8 }
%"class.std::basic_ostream" = type { i32 (...)**, %"class.std::basic_ios" }
%"class.std::basic_ios" = type { %"class.std::ios_base", %"class.std::basic_ostream"*, i8, i8, %"class.std::basic_streambuf"*, %"class.std::ctype"*, %"class.std::num_put"*, %"class.std::num_get"* }
%"class.std::ios_base" = type { i32 (...)**, i64, i64, i32, i32, i32, %"struct.std::ios_base::_Callback_list"*, %"struct.std::ios_base::_Words", [8 x %"struct.std::ios_base::_Words"], i32, %"struct.std::ios_base::_Words"*, %"class.std::locale" }
%"struct.std::ios_base::_Callback_list" = type { %"struct.std::ios_base::_Callback_list"*, void (i32, %"class.std::ios_base"*, i32)*, i32, i32 }
%"struct.std::ios_base::_Words" = type { i8*, i64 }
%"class.std::locale" = type { %"class.std::locale::_Impl"* }
%"class.std::locale::_Impl" = type { i32, %"class.std::locale::facet"**, i64, %"class.std::locale::facet"**, i8** }
%"class.std::locale::facet" = type <{ i32 (...)**, i32, [4 x i8] }>
%"class.std::basic_streambuf" = type { i32 (...)**, i8*, i8*, i8*, i8*, i8*, i8*, %"class.std::locale" }
%"class.std::ctype" = type <{ %"class.std::locale::facet.base", [4 x i8], %struct.__locale_struct*, i8, [7 x i8], i32*, i32*, i16*, i8, [256 x i8], [256 x i8], i8, [6 x i8] }>
%"class.std::locale::facet.base" = type <{ i32 (...)**, i32 }>
%struct.__locale_struct = type { [13 x %struct.__locale_data*], i16*, i32*, i32*, [13 x i8*] }
%struct.__locale_data = type opaque
%"class.std::num_put" = type { %"class.std::locale::facet.base", [4 x i8] }
%"class.std::num_get" = type { %"class.std::locale::facet.base", [4 x i8] }
%"class.std::basic_istream" = type { i32 (...)**, i64, %"class.std::basic_ios" }

@_ZStL8__ioinit = internal global %"class.std::ios_base::Init" zeroinitializer, align 1
@__dso_handle = external hidden global i8
@_ZSt4cout = external global %"class.std::basic_ostream", align 8
@_ZSt3cin = external global %"class.std::basic_istream", align 8
@llvm.global_ctors = appending global [1 x { i32, void ()*, i8* }] [{ i32, void ()*, i8* } { i32 65535, void ()* @_GLOBAL__sub_I_501.cpp, i8* null }]

declare void @_ZNSt8ios_base4InitC1Ev(%"class.std::ios_base::Init"* nonnull align 1 dereferenceable(1)) unnamed_addr #0

; Function Attrs: nounwind
declare void @_ZNSt8ios_base4InitD1Ev(%"class.std::ios_base::Init"* nonnull align 1 dereferenceable(1)) unnamed_addr #1

; Function Attrs: nofree nounwind
declare i32 @__cxa_atexit(void (i8*)*, i8*, i8*) local_unnamed_addr #2

; Function Attrs: mustprogress sspstrong uwtable
define dso_local void @_Z6shuchuPci(i8* nocapture readonly %0, i32 %1) local_unnamed_addr #3 {
  %3 = alloca i8, align 1
  %4 = alloca i8, align 1
  %5 = icmp slt i32 %1, 2
  br i1 %5, label %125, label %6

6:                                                ; preds = %2
  %7 = add nuw i32 %1, 1
  %8 = zext i32 %7 to i64
  %9 = zext i32 %1 to i64
  br label %10

10:                                               ; preds = %6, %120
  %11 = phi i64 [ 0, %6 ], [ %123, %120 ]
  %12 = phi i64 [ 2, %6 ], [ %121, %120 ]
  %13 = add i64 %11, 2
  %14 = add nsw i64 %12, -1
  %15 = and i64 %11, 1
  %16 = icmp eq i64 %11, -1
  %17 = and i64 %13, -2
  %18 = icmp eq i64 %15, 0
  br label %116

19:                                               ; preds = %86, %116
  %20 = phi i32 [ undef, %116 ], [ %111, %86 ]
  %21 = phi i64 [ 0, %116 ], [ %112, %86 ]
  %22 = phi i32 [ 1, %116 ], [ %111, %86 ]
  %23 = phi i32 [ 0, %116 ], [ %113, %86 ]
  br i1 %18, label %35, label %24

24:                                               ; preds = %19
  %25 = add nuw nsw i64 %21, %117
  %26 = getelementptr inbounds i8, i8* %0, i64 %25
  %27 = load i8, i8* %26, align 1, !tbaa !5
  %28 = xor i32 %23, -1
  %29 = add nsw i32 %119, %28
  %30 = sext i32 %29 to i64
  %31 = getelementptr inbounds i8, i8* %0, i64 %30
  %32 = load i8, i8* %31, align 1, !tbaa !5
  %33 = icmp eq i8 %27, %32
  %34 = select i1 %33, i32 %22, i32 0
  br label %35

35:                                               ; preds = %19, %24
  %36 = phi i32 [ %20, %19 ], [ %34, %24 ]
  %37 = icmp eq i32 %36, 0
  br i1 %37, label %83, label %38

38:                                               ; preds = %35
  %39 = add nuw nsw i64 %14, %117
  %40 = getelementptr inbounds i8, i8* %0, i64 %39
  br label %41

41:                                               ; preds = %38, %80
  %42 = phi i64 [ 0, %38 ], [ %81, %80 ]
  %43 = icmp eq i64 %42, %14
  br i1 %43, label %49, label %44

44:                                               ; preds = %41
  %45 = add nuw nsw i64 %42, %117
  %46 = getelementptr inbounds i8, i8* %0, i64 %45
  %47 = load i8, i8* %46, align 1, !tbaa !5
  call void @llvm.lifetime.start.p0i8(i64 1, i8* nonnull %3)
  store i8 %47, i8* %3, align 1, !tbaa !5
  %48 = call nonnull align 8 dereferenceable(8) %"class.std::basic_ostream"* @_ZSt16__ostream_insertIcSt11char_traitsIcEERSt13basic_ostreamIT_T0_ES6_PKS3_l(%"class.std::basic_ostream"* nonnull align 8 dereferenceable(8) @_ZSt4cout, i8* nonnull %3, i64 1)
  call void @llvm.lifetime.end.p0i8(i64 1, i8* nonnull %3)
  br label %80

49:                                               ; preds = %41
  %50 = load i8, i8* %40, align 1, !tbaa !5
  call void @llvm.lifetime.start.p0i8(i64 1, i8* nonnull %4)
  store i8 %50, i8* %4, align 1, !tbaa !5
  %51 = call nonnull align 8 dereferenceable(8) %"class.std::basic_ostream"* @_ZSt16__ostream_insertIcSt11char_traitsIcEERSt13basic_ostreamIT_T0_ES6_PKS3_l(%"class.std::basic_ostream"* nonnull align 8 dereferenceable(8) @_ZSt4cout, i8* nonnull %4, i64 1)
  call void @llvm.lifetime.end.p0i8(i64 1, i8* nonnull %4)
  %52 = bitcast %"class.std::basic_ostream"* %51 to i8**
  %53 = load i8*, i8** %52, align 8, !tbaa !8
  %54 = getelementptr i8, i8* %53, i64 -24
  %55 = bitcast i8* %54 to i64*
  %56 = load i64, i64* %55, align 8
  %57 = bitcast %"class.std::basic_ostream"* %51 to i8*
  %58 = add nsw i64 %56, 240
  %59 = getelementptr inbounds i8, i8* %57, i64 %58
  %60 = bitcast i8* %59 to %"class.std::ctype"**
  %61 = load %"class.std::ctype"*, %"class.std::ctype"** %60, align 8, !tbaa !10
  %62 = icmp eq %"class.std::ctype"* %61, null
  br i1 %62, label %124, label %63

63:                                               ; preds = %49
  %64 = getelementptr inbounds %"class.std::ctype", %"class.std::ctype"* %61, i64 0, i32 8
  %65 = load i8, i8* %64, align 8, !tbaa !14
  %66 = icmp eq i8 %65, 0
  br i1 %66, label %70, label %67

67:                                               ; preds = %63
  %68 = getelementptr inbounds %"class.std::ctype", %"class.std::ctype"* %61, i64 0, i32 9, i64 10
  %69 = load i8, i8* %68, align 1, !tbaa !5
  br label %76

70:                                               ; preds = %63
  call void @_ZNKSt5ctypeIcE13_M_widen_initEv(%"class.std::ctype"* nonnull align 8 dereferenceable(570) %61)
  %71 = bitcast %"class.std::ctype"* %61 to i8 (%"class.std::ctype"*, i8)***
  %72 = load i8 (%"class.std::ctype"*, i8)**, i8 (%"class.std::ctype"*, i8)*** %71, align 8, !tbaa !8
  %73 = getelementptr inbounds i8 (%"class.std::ctype"*, i8)*, i8 (%"class.std::ctype"*, i8)** %72, i64 6
  %74 = load i8 (%"class.std::ctype"*, i8)*, i8 (%"class.std::ctype"*, i8)** %73, align 8
  %75 = call signext i8 %74(%"class.std::ctype"* nonnull align 8 dereferenceable(570) %61, i8 signext 10)
  br label %76

76:                                               ; preds = %70, %67
  %77 = phi i8 [ %69, %67 ], [ %75, %70 ]
  %78 = call nonnull align 8 dereferenceable(8) %"class.std::basic_ostream"* @_ZNSo3putEc(%"class.std::basic_ostream"* nonnull align 8 dereferenceable(8) %51, i8 signext %77)
  %79 = call nonnull align 8 dereferenceable(8) %"class.std::basic_ostream"* @_ZNSo5flushEv(%"class.std::basic_ostream"* nonnull align 8 dereferenceable(8) %78)
  br label %80

80:                                               ; preds = %76, %44
  %81 = add nuw nsw i64 %42, 1
  %82 = icmp eq i64 %81, %12
  br i1 %82, label %83, label %41, !llvm.loop !16

83:                                               ; preds = %80, %35
  %84 = add nuw nsw i64 %117, 1
  %85 = icmp eq i64 %84, %9
  br i1 %85, label %120, label %116, !llvm.loop !18

86:                                               ; preds = %116, %86
  %87 = phi i64 [ %112, %86 ], [ 0, %116 ]
  %88 = phi i32 [ %111, %86 ], [ 1, %116 ]
  %89 = phi i32 [ %113, %86 ], [ 0, %116 ]
  %90 = phi i64 [ %114, %86 ], [ %17, %116 ]
  %91 = add nuw nsw i64 %87, %117
  %92 = getelementptr inbounds i8, i8* %0, i64 %91
  %93 = load i8, i8* %92, align 1, !tbaa !5
  %94 = xor i32 %89, -1
  %95 = add nsw i32 %119, %94
  %96 = sext i32 %95 to i64
  %97 = getelementptr inbounds i8, i8* %0, i64 %96
  %98 = load i8, i8* %97, align 1, !tbaa !5
  %99 = icmp eq i8 %93, %98
  %100 = or i64 %87, 1
  %101 = add nuw nsw i64 %100, %117
  %102 = getelementptr inbounds i8, i8* %0, i64 %101
  %103 = load i8, i8* %102, align 1, !tbaa !5
  %104 = sub nuw nsw i32 -2, %89
  %105 = add nsw i32 %104, %119
  %106 = sext i32 %105 to i64
  %107 = getelementptr inbounds i8, i8* %0, i64 %106
  %108 = load i8, i8* %107, align 1, !tbaa !5
  %109 = icmp eq i8 %103, %108
  %110 = select i1 %109, i1 %99, i1 false
  %111 = select i1 %110, i32 %88, i32 0
  %112 = add nuw nsw i64 %87, 2
  %113 = add nuw nsw i32 %89, 2
  %114 = add i64 %90, -2
  %115 = icmp eq i64 %114, 0
  br i1 %115, label %19, label %86, !llvm.loop !19

116:                                              ; preds = %10, %83
  %117 = phi i64 [ 1, %10 ], [ %84, %83 ]
  %118 = add nuw nsw i64 %117, %12
  %119 = trunc i64 %118 to i32
  br i1 %16, label %19, label %86

120:                                              ; preds = %83
  %121 = add nuw nsw i64 %12, 1
  %122 = icmp eq i64 %121, %8
  %123 = add i64 %11, 1
  br i1 %122, label %125, label %10, !llvm.loop !20

124:                                              ; preds = %49
  call void @_ZSt16__throw_bad_castv() #8
  unreachable

125:                                              ; preds = %120, %2
  ret void
}

; Function Attrs: argmemonly mustprogress nofree nosync nounwind willreturn
declare void @llvm.lifetime.start.p0i8(i64 immarg, i8* nocapture) #4

; Function Attrs: argmemonly mustprogress nofree nosync nounwind willreturn
declare void @llvm.lifetime.end.p0i8(i64 immarg, i8* nocapture) #4

; Function Attrs: mustprogress norecurse sspstrong uwtable
define dso_local i32 @main() local_unnamed_addr #5 {
  %1 = alloca [501 x i8], align 16
  %2 = getelementptr inbounds [501 x i8], [501 x i8]* %1, i64 0, i64 0
  call void @llvm.lifetime.start.p0i8(i64 501, i8* nonnull %2) #9
  br label %3

3:                                                ; preds = %0, %3
  %4 = phi i64 [ 1, %0 ], [ %8, %3 ]
  %5 = tail call i32 @_ZNSi3getEv(%"class.std::basic_istream"* nonnull align 8 dereferenceable(16) @_ZSt3cin)
  %6 = trunc i32 %5 to i8
  %7 = getelementptr inbounds [501 x i8], [501 x i8]* %1, i64 0, i64 %4
  store i8 %6, i8* %7, align 1, !tbaa !5
  %8 = add nuw i64 %4, 1
  %9 = icmp eq i8 %6, 10
  br i1 %9, label %10, label %3, !llvm.loop !21

10:                                               ; preds = %3
  %11 = trunc i64 %8 to i32
  call void @_Z6shuchuPci(i8* nonnull %2, i32 %11)
  call void @llvm.lifetime.end.p0i8(i64 501, i8* nonnull %2) #9
  ret i32 0
}

declare i32 @_ZNSi3getEv(%"class.std::basic_istream"* nonnull align 8 dereferenceable(16)) local_unnamed_addr #0

declare nonnull align 8 dereferenceable(8) %"class.std::basic_ostream"* @_ZSt16__ostream_insertIcSt11char_traitsIcEERSt13basic_ostreamIT_T0_ES6_PKS3_l(%"class.std::basic_ostream"* nonnull align 8 dereferenceable(8), i8*, i64) local_unnamed_addr #0

declare nonnull align 8 dereferenceable(8) %"class.std::basic_ostream"* @_ZNSo3putEc(%"class.std::basic_ostream"* nonnull align 8 dereferenceable(8), i8 signext) local_unnamed_addr #0

declare nonnull align 8 dereferenceable(8) %"class.std::basic_ostream"* @_ZNSo5flushEv(%"class.std::basic_ostream"* nonnull align 8 dereferenceable(8)) local_unnamed_addr #0

; Function Attrs: noreturn
declare void @_ZSt16__throw_bad_castv() local_unnamed_addr #6

declare void @_ZNKSt5ctypeIcE13_M_widen_initEv(%"class.std::ctype"* nonnull align 8 dereferenceable(570)) local_unnamed_addr #0

; Function Attrs: sspstrong uwtable
define internal void @_GLOBAL__sub_I_501.cpp() #7 section ".text.startup" {
  tail call void @_ZNSt8ios_base4InitC1Ev(%"class.std::ios_base::Init"* nonnull align 1 dereferenceable(1) @_ZStL8__ioinit)
  %1 = tail call i32 @__cxa_atexit(void (i8*)* bitcast (void (%"class.std::ios_base::Init"*)* @_ZNSt8ios_base4InitD1Ev to void (i8*)*), i8* getelementptr inbounds (%"class.std::ios_base::Init", %"class.std::ios_base::Init"* @_ZStL8__ioinit, i64 0, i32 0), i8* nonnull @__dso_handle) #9
  ret void
}


!llvm.module.flags = !{!0, !1, !2, !3}
!llvm.ident = !{!4}

!0 = !{i32 1, !"wchar_size", i32 4}
!1 = !{i32 7, !"PIC Level", i32 2}
!2 = !{i32 7, !"PIE Level", i32 2}
!3 = !{i32 7, !"uwtable", i32 1}
!4 = !{!"clang version 13.0.0"}
!5 = !{!6, !6, i64 0}
!6 = !{!"omnipotent char", !7, i64 0}
!7 = !{!"Simple C++ TBAA"}
!8 = !{!9, !9, i64 0}
!9 = !{!"vtable pointer", !7, i64 0}
!10 = !{!11, !12, i64 240}
!11 = !{!"_ZTSSt9basic_iosIcSt11char_traitsIcEE", !12, i64 216, !6, i64 224, !13, i64 225, !12, i64 232, !12, i64 240, !12, i64 248, !12, i64 256}
!12 = !{!"any pointer", !6, i64 0}
!13 = !{!"bool", !6, i64 0}
!14 = !{!15, !6, i64 56}
!15 = !{!"_ZTSSt5ctypeIcE", !12, i64 16, !13, i64 24, !12, i64 32, !12, i64 40, !12, i64 48, !6, i64 56, !6, i64 57, !6, i64 313, !6, i64 569}
!16 = distinct !{!16, !17}
!17 = !{!"llvm.loop.mustprogress"}
!18 = distinct !{!18, !17}
!19 = distinct !{!19, !17}
!20 = distinct !{!20, !17}
!21 = distinct !{!21, !17}
